; Function Attrs: mustprogress nofree norecurse nosync nounwind willreturn memory(argmem: readwrite) uwtable
define noundef i64 @ZSTDv07_decompressBegin(ptr noundef writeonly captures(none) initializes((5132, 5136), (21520, 21572), (21604, 21616), (21712, 21716)) %0) local_unnamed_addr #13 {
  %2 = getelementptr inbounds nuw i8, ptr %0, i64 21552
  store i64 5, ptr %2, align 8, !tbaa !62
  %3 = getelementptr inbounds nuw i8, ptr %0, i64 21604
  store i32 0, ptr %3, align 4, !tbaa !68
  %4 = getelementptr inbounds nuw i8, ptr %0, i64 21520
  %5 = getelementptr inbounds nuw i8, ptr %0, i64 5132
  tail call void @llvm.memset.p0.i64(ptr noundef nonnull align 8 dereferenceable(32) %4, i8 0, i64 32, i1 false)
  store i32 201326604, ptr %5, align 4, !tbaa !3
  %6 = getelementptr inbounds nuw i8, ptr %0, i64 21612
  store i32 0, ptr %6, align 4, !tbaa !69
  %7 = getelementptr inbounds nuw i8, ptr %0, i64 21608
  store i32 0, ptr %7, align 8, !tbaa !70
  %8 = getelementptr inbounds nuw i8, ptr %0, i64 21712
  store i32 0, ptr %8, align 8, !tbaa !71
  %9 = getelementptr inbounds nuw i8, ptr %0, i64 21560
  tail call void @llvm.memcpy.p0.p0.i64(ptr noundef nonnull align 4 dereferenceable(12) %9, ptr noundef nonnull align 4 dereferenceable(12) @repStartValue, i64 12, i1 false), !tbaa !3
  ret i64 0
}